; Function Attrs: mustprogress null_pointer_is_valid sspstrong uwtable
define void @_ZN19WiresharkMainWindow23showExtcapOptionsDialogER7QStringb(ptr noundef align 8 dereferenceable_or_null(560) %0, ptr noundef align 8 dereferenceable(24) %1, i1 noundef zeroext %2) local_unnamed_addr #0 align 2 personality ptr @__gxx_personality_v0 {
  %4 = alloca { i64, i64 }, align 8
  %5 = alloca { i64, i64 }, align 8
  %6 = alloca %"class.QMetaObject::Connection", align 8
  %7 = tail call noundef ptr @_ZN19ExtcapOptionsDialog15createForDeviceER7QStringbP7QWidget(ptr noundef align 8 dereferenceable(24) %1, i1 noundef zeroext %2, ptr noundef %0)
  %.not = icmp eq ptr %7, null
  br i1 %.not, label %12, label %8

8:                                                ; preds = %3
  tail call void @_ZN7QDialog8setModalEb(ptr noundef nonnull align 8 dereferenceable_or_null(40) %7, i1 noundef zeroext true)
  tail call void @_ZN7QWidget12setAttributeEN2Qt15WidgetAttributeEb(ptr noundef nonnull align 8 dereferenceable_or_null(40) %7, i32 noundef 55, i1 noundef zeroext true)
  call void @llvm.lifetime.start.p0(i64 16, ptr nonnull %4)
  call void @llvm.lifetime.start.p0(i64 16, ptr nonnull %5)
  store i64 ptrtoint (ptr @_ZN7QDialog8finishedEi to i64), ptr %4, align 8, !noalias !1014
  %.fca.1.gep12.i = getelementptr inbounds nuw i8, ptr %4, i64 8
  store i64 0, ptr %.fca.1.gep12.i, align 8, !noalias !1014
  store i64 ptrtoint (ptr @_ZN19WiresharkMainWindow23extcap_options_finishedEi to i64), ptr %5, align 8, !noalias !1014
  %.fca.1.gep.i = getelementptr inbounds nuw i8, ptr %5, i64 8
  store i64 0, ptr %.fca.1.gep.i, align 8, !noalias !1014
  %9 = tail call noalias noundef dereferenceable_or_null(32) ptr @_Znwm(i64 noundef 32) #28, !noalias !1014
  store i32 1, ptr %9, align 4, !noalias !1014
  %10 = getelementptr inbounds nuw i8, ptr %9, i64 8
  store ptr @_ZN9QtPrivate11QSlotObjectIM19WiresharkMainWindowFviENS_4ListIJiEEEvE4implEiPNS_15QSlotObjectBaseEP7QObjectPPvPb, ptr %10, align 8, !noalias !1014
  %11 = getelementptr inbounds nuw i8, ptr %9, i64 16
  store i64 ptrtoint (ptr @_ZN19WiresharkMainWindow23extcap_options_finishedEi to i64), ptr %11, align 8, !noalias !1014
  %.repack7.i.i = getelementptr inbounds nuw i8, ptr %9, i64 24
  store i64 0, ptr %.repack7.i.i, align 8, !noalias !1014
  call void @_ZN7QObject11connectImplEPKS_PPvS1_S3_PN9QtPrivate15QSlotObjectBaseEN2Qt14ConnectionTypeEPKiPK11QMetaObject(ptr dead_on_unwind nonnull writable sret(%"class.QMetaObject::Connection") align 8 %6, ptr noundef nonnull %7, ptr noundef nonnull %4, ptr noundef %0, ptr noundef nonnull %5, ptr noundef %9, i32 noundef 0, ptr noundef null, ptr noundef nonnull @_ZN7QDialog16staticMetaObjectE)
  call void @llvm.lifetime.end.p0(i64 16, ptr nonnull %4)
  call void @llvm.lifetime.end.p0(i64 16, ptr nonnull %5)
  call void @_ZN11QMetaObject10ConnectionD1Ev(ptr noundef nonnull align 8 dereferenceable_or_null(8) %6) #25
  call void @_ZN7QWidget4showEv(ptr noundef nonnull align 8 dereferenceable_or_null(40) %7)
  br label %12

12:                                               ; preds = %8, %3
  ret void
}